target datalayout = "e-m:e-p270:32:32-p271:32:32-p272:64:64-i64:64-i128:128-f80:128-n8:16:32:64-S128"
target triple = "x86_64-pc-linux-gnu"

%"struct.Luau::Location" = type { %"struct.Luau::Position", %"struct.Luau::Position" }
%"struct.Luau::Position" = type { i32, i32 }
%"struct.Luau::Compile::Constant" = type { i32, i32, %union.anon.209 }
%union.anon.209 = type { double, [8 x i8] }

@.str.96 = private unnamed_addr constant [45 x i8] c"Exceeded custom string constant length limit\00", align 1

; Function Attrs: mustprogress nounwind uwtable
define linkonce_odr dso_local void @_ZN4Luau8PositionC2Ejj(ptr noundef nonnull align 4 dereferenceable(8) %0, i32 noundef %1, i32 noundef %2) unnamed_addr #2 comdat align 2 {
  %4 = alloca ptr, align 8
  %5 = alloca i32, align 4
  %6 = alloca i32, align 4
  store ptr %0, ptr %4, align 8, !tbaa !1342
  store i32 %1, ptr %5, align 4, !tbaa !4
  store i32 %2, ptr %6, align 4, !tbaa !4
  %7 = load ptr, ptr %4, align 8
  %8 = getelementptr inbounds nuw %"struct.Luau::Position", ptr %7, i32 0, i32 0
  %9 = load i32, ptr %5, align 4, !tbaa !4
  store i32 %9, ptr %8, align 4, !tbaa !1344
  %10 = getelementptr inbounds nuw %"struct.Luau::Position", ptr %7, i32 0, i32 1
  %11 = load i32, ptr %6, align 4, !tbaa !4
  store i32 %11, ptr %10, align 4, !tbaa !1345
  ret void
}

; Function Attrs: mustprogress uwtable
define linkonce_odr dso_local void @_ZN4Luau8LocationC2Ev(ptr noundef nonnull align 4 dereferenceable(16) %0) unnamed_addr #3 comdat align 2 {
  %2 = alloca ptr, align 8
  store ptr %0, ptr %2, align 8, !tbaa !24
  %3 = load ptr, ptr %2, align 8
  %4 = getelementptr inbounds nuw %"struct.Luau::Location", ptr %3, i32 0, i32 0
  call void @_ZN4Luau8PositionC2Ejj(ptr noundef nonnull align 4 dereferenceable(8) %4, i32 noundef 0, i32 noundef 0)
  %5 = getelementptr inbounds nuw %"struct.Luau::Location", ptr %3, i32 0, i32 1
  call void @_ZN4Luau8PositionC2Ejj(ptr noundef nonnull align 4 dereferenceable(8) %5, i32 noundef 0, i32 noundef 0)
  ret void
}

; Function Attrs: mustprogress nounwind uwtable
define linkonce_odr dso_local noundef i32 @_ZNSt14numeric_limitsIjE3maxEv() #2 comdat align 2 {
  ret i32 -1
}

; Function Attrs: mustprogress uwtable
define dso_local void @_ZN4Luau24setCompileConstantStringEPPvPKcm(ptr noundef %0, ptr noundef %1, i64 noundef %2) #3 {
  %4 = alloca ptr, align 8
  %5 = alloca ptr, align 8
  %6 = alloca i64, align 8
  %7 = alloca ptr, align 8
  %8 = alloca %"struct.Luau::Location", align 4
  store ptr %0, ptr %4, align 8, !tbaa !316
  store ptr %1, ptr %5, align 8, !tbaa !11
  store i64 %2, ptr %6, align 8, !tbaa !261
  call void @llvm.lifetime.start.p0(i64 8, ptr %7) #22
  %9 = load ptr, ptr %4, align 8, !tbaa !316
  store ptr %9, ptr %7, align 8, !tbaa !317
  %10 = load i64, ptr %6, align 8, !tbaa !261
  %11 = call noundef i32 @_ZNSt14numeric_limitsIjE3maxEv() #22
  %12 = zext i32 %11 to i64
  %13 = icmp ugt i64 %10, %12
  br i1 %13, label %14, label %15

14:                                               ; preds = %3
  call void @llvm.lifetime.start.p0(i64 16, ptr %8) #22
  call void @_ZN4Luau8LocationC2Ev(ptr noundef nonnull align 4 dereferenceable(16) %8)
  call void (ptr, ptr, ...) @_ZN4Luau12CompileError5raiseERKNS_8LocationEPKcz(ptr noundef nonnull align 4 dereferenceable(16) %8, ptr noundef @.str.96) #25
  unreachable

15:                                               ; preds = %3
  %16 = load ptr, ptr %7, align 8, !tbaa !317
  %17 = getelementptr inbounds nuw %"struct.Luau::Compile::Constant", ptr %16, i32 0, i32 0
  store i32 5, ptr %17, align 8, !tbaa !319
  %18 = load i64, ptr %6, align 8, !tbaa !261
  %19 = trunc i64 %18 to i32
  %20 = load ptr, ptr %7, align 8, !tbaa !317
  %21 = getelementptr inbounds nuw %"struct.Luau::Compile::Constant", ptr %20, i32 0, i32 1
  store i32 %19, ptr %21, align 4, !tbaa !326
  %22 = load ptr, ptr %5, align 8, !tbaa !11
  %23 = load ptr, ptr %7, align 8, !tbaa !317
  %24 = getelementptr inbounds nuw %"struct.Luau::Compile::Constant", ptr %23, i32 0, i32 2
  store ptr %22, ptr %24, align 8, !tbaa !46
  call void @llvm.lifetime.end.p0(i64 8, ptr %7) #22
  ret void
}