; Function Attrs: mustprogress uwtable
define dso_local void @_ZN4Luau24setCompileConstantStringEPPvPKcm(ptr noundef writeonly captures(none) %0, ptr noundef %1, i64 noundef %2) local_unnamed_addr #2 {
  %4 = alloca %"struct.Luau::Location", align 4
  %5 = icmp ugt i64 %2, 4294967295
  br i1 %5, label %6, label %7

6:                                                ; preds = %3
  call void @llvm.lifetime.start.p0(i64 16, ptr nonnull %4) #27
  call void @llvm.memset.p0.i64(ptr noundef nonnull align 4 dereferenceable(16) %4, i8 0, i64 16, i1 false)
  call void (ptr, ptr, ...) @_ZN4Luau12CompileError5raiseERKNS_8LocationEPKcz(ptr noundef nonnull align 4 dereferenceable(16) %4, ptr noundef nonnull @.str.96) #29
  unreachable

7:                                                ; preds = %3
  store i32 5, ptr %0, align 8, !tbaa !421
  %8 = trunc nuw i64 %2 to i32
  %9 = getelementptr inbounds nuw i8, ptr %0, i64 4
  store i32 %8, ptr %9, align 4, !tbaa !424
  %10 = getelementptr inbounds nuw i8, ptr %0, i64 8
  store ptr %1, ptr %10, align 8, !tbaa !20
  ret void
}